target datalayout = "e-m:e-p270:32:32-p271:32:32-p272:64:64-i64:64-i128:128-f80:128-n8:16:32:64-S128"
target triple = "x86_64-unknown-linux-gnu"

%struct.VirtIOGPUBase = type { %struct.VirtIODevice, ptr, %struct.virtio_gpu_base_conf, %struct.virtio_gpu_config, ptr, i32, i32, %struct.MemoryRegion, [16 x %struct.virtio_gpu_scanout], i32, [16 x %struct.virtio_gpu_requested_state] }
%struct.VirtIODevice = type { %struct.DeviceState, ptr, i8, i8, i16, i64, i64, i64, i64, ptr, i16, i32, i32, ptr, %struct.MemoryListener, i16, i8, i8, i8, i8, i8, i8, i8, i8, i8, ptr, ptr, i8, i8, ptr, ptr, %union.anon.1, %struct.EventNotifier, i8 }
%struct.DeviceState = type { %struct.Object, ptr, ptr, i8, i8, i64, ptr, i32, i8, ptr, %struct.NamedGPIOListHead, %struct.NamedClockListHead, %struct.BusStateHead, i32, i32, i32, %struct.ResettableState, ptr, %struct.MemReentrancyGuard }
%struct.Object = type { ptr, ptr, ptr, i32, ptr }
%struct.NamedGPIOListHead = type { ptr }
%struct.NamedClockListHead = type { ptr }
%struct.BusStateHead = type { ptr }
%struct.ResettableState = type { i32, i8, i8 }
%struct.MemReentrancyGuard = type { i8 }
%struct.MemoryListener = type { ptr, ptr, ptr, ptr, ptr, ptr, ptr, ptr, ptr, ptr, ptr, ptr, ptr, ptr, ptr, ptr, ptr, i32, ptr, ptr, %union.anon, %union.anon.0 }
%union.anon = type { %struct.QTailQLink }
%struct.QTailQLink = type { ptr, ptr }
%union.anon.0 = type { %struct.QTailQLink }
%union.anon.1 = type { %struct.QTailQLink }
%struct.EventNotifier = type { i32, i32, i8 }
%struct.virtio_gpu_base_conf = type { i32, i32, i32, i32, i64 }
%struct.virtio_gpu_config = type { i32, i32, i32, i32 }
%struct.MemoryRegion = type { %struct.Object, i8, i8, i8, i8, i8, i8, i8, i8, i8, i8, ptr, ptr, ptr, ptr, ptr, ptr, i32, i128, i64, ptr, i64, i8, i8, i8, i8, i8, ptr, i64, i32, %union.anon.2, %union.anon.3, %union.anon.4, ptr, i32, ptr, ptr, i8 }
%union.anon.2 = type { %struct.QTailQLink }
%union.anon.3 = type { %struct.QTailQLink }
%union.anon.4 = type { %struct.QTailQLink }
%struct.virtio_gpu_scanout = type { ptr, ptr, i32, i32, i32, i32, i32, i32, %struct.virtio_gpu_update_cursor, ptr }
%struct.virtio_gpu_update_cursor = type { %struct.virtio_gpu_ctrl_hdr, %struct.virtio_gpu_cursor_pos, i32, i32, i32, i32 }
%struct.virtio_gpu_ctrl_hdr = type { i32, i32, i64, i32, i8, [3 x i8] }
%struct.virtio_gpu_cursor_pos = type { i32, i32, i32, i32 }
%struct.virtio_gpu_requested_state = type { i16, i16, i32, i32, i32, i32, i32 }

@.str.5 = private unnamed_addr constant [16 x i8] c"virtio-gpu-base\00", align 1
@.str.6 = private unnamed_addr constant [109 x i8] c"/home/dtcxzyw/WorkSpace/Projects/compilers/llvm-opt-benchmark/bench/qemu/qemu/include/hw/virtio/virtio-gpu.h\00", align 1
@__func__.VIRTIO_GPU_BASE = private unnamed_addr constant [16 x i8] c"VIRTIO_GPU_BASE\00", align 1

; Function Attrs: nounwind sspstrong uwtable
define internal ptr @VIRTIO_GPU_BASE(ptr noundef %obj) #0 {
entry:
  %obj.addr = alloca ptr, align 8
  store ptr %obj, ptr %obj.addr, align 8
  %0 = load ptr, ptr %obj.addr, align 8
  %call = call ptr @object_dynamic_cast_assert(ptr noundef %0, ptr noundef @.str.5, ptr noundef @.str.6, i32 noundef 30, ptr noundef @__func__.VIRTIO_GPU_BASE)
  ret ptr %call
}

; Function Attrs: nounwind sspstrong uwtable
define internal i64 @virtio_gpu_base_get_features(ptr noundef %vdev, i64 noundef %features, ptr noundef %errp) #0 {
entry:
  %vdev.addr = alloca ptr, align 8
  %features.addr = alloca i64, align 8
  %errp.addr = alloca ptr, align 8
  %g = alloca ptr, align 8
  store ptr %vdev, ptr %vdev.addr, align 8
  store i64 %features, ptr %features.addr, align 8
  store ptr %errp, ptr %errp.addr, align 8
  %0 = load ptr, ptr %vdev.addr, align 8
  %call = call ptr @VIRTIO_GPU_BASE(ptr noundef %0)
  store ptr %call, ptr %g, align 8
  %1 = load ptr, ptr %g, align 8
  %conf = getelementptr inbounds %struct.VirtIOGPUBase, ptr %1, i32 0, i32 2
  %flags = getelementptr inbounds %struct.virtio_gpu_base_conf, ptr %conf, i32 0, i32 1
  %2 = load i32, ptr %flags, align 4
  %and = and i32 %2, 2
  %tobool = icmp ne i32 %and, 0
  br i1 %tobool, label %if.then, label %lor.lhs.false

lor.lhs.false:                                    ; preds = %entry
  %3 = load ptr, ptr %g, align 8
  %conf1 = getelementptr inbounds %struct.VirtIOGPUBase, ptr %3, i32 0, i32 2
  %flags2 = getelementptr inbounds %struct.virtio_gpu_base_conf, ptr %conf1, i32 0, i32 1
  %4 = load i32, ptr %flags2, align 4
  %and3 = and i32 %4, 128
  %tobool4 = icmp ne i32 %and3, 0
  br i1 %tobool4, label %if.then, label %if.end

if.then:                                          ; preds = %lor.lhs.false, %entry
  %5 = load i64, ptr %features.addr, align 8
  %or = or i64 %5, 1
  store i64 %or, ptr %features.addr, align 8
  br label %if.end

if.end:                                           ; preds = %if.then, %lor.lhs.false
  %6 = load ptr, ptr %g, align 8
  %conf5 = getelementptr inbounds %struct.VirtIOGPUBase, ptr %6, i32 0, i32 2
  %flags6 = getelementptr inbounds %struct.virtio_gpu_base_conf, ptr %conf5, i32 0, i32 1
  %7 = load i32, ptr %flags6, align 4
  %and7 = and i32 %7, 8
  %tobool8 = icmp ne i32 %and7, 0
  br i1 %tobool8, label %if.then9, label %if.end11

if.then9:                                         ; preds = %if.end
  %8 = load i64, ptr %features.addr, align 8
  %or10 = or i64 %8, 2
  store i64 %or10, ptr %features.addr, align 8
  br label %if.end11

if.end11:                                         ; preds = %if.then9, %if.end
  %9 = load ptr, ptr %g, align 8
  %conf12 = getelementptr inbounds %struct.VirtIOGPUBase, ptr %9, i32 0, i32 2
  %flags13 = getelementptr inbounds %struct.virtio_gpu_base_conf, ptr %conf12, i32 0, i32 1
  %10 = load i32, ptr %flags13, align 4
  %and14 = and i32 %10, 32
  %tobool15 = icmp ne i32 %and14, 0
  br i1 %tobool15, label %if.then16, label %if.end18

if.then16:                                        ; preds = %if.end11
  %11 = load i64, ptr %features.addr, align 8
  %or17 = or i64 %11, 8
  store i64 %or17, ptr %features.addr, align 8
  br label %if.end18

if.end18:                                         ; preds = %if.then16, %if.end11
  %12 = load ptr, ptr %g, align 8
  %conf19 = getelementptr inbounds %struct.VirtIOGPUBase, ptr %12, i32 0, i32 2
  %flags20 = getelementptr inbounds %struct.virtio_gpu_base_conf, ptr %conf19, i32 0, i32 1
  %13 = load i32, ptr %flags20, align 4
  %and21 = and i32 %13, 64
  %tobool22 = icmp ne i32 %and21, 0
  br i1 %tobool22, label %if.then23, label %if.end25

if.then23:                                        ; preds = %if.end18
  %14 = load i64, ptr %features.addr, align 8
  %or24 = or i64 %14, 16
  store i64 %or24, ptr %features.addr, align 8
  br label %if.end25

if.end25:                                         ; preds = %if.then23, %if.end18
  %15 = load i64, ptr %features.addr, align 8
  ret i64 %15
}