; Function Attrs: nounwind sspstrong uwtable
define internal i64 @virtio_gpu_base_get_features(ptr noundef %vdev, i64 noundef %features, ptr readnone captures(none) %errp) #1 {
entry:
  %call.i = tail call ptr @object_dynamic_cast_assert(ptr noundef %vdev, ptr noundef nonnull @.str.5, ptr noundef nonnull @.str.6, i32 noundef 30, ptr noundef nonnull @__func__.VIRTIO_GPU_BASE) #9
  %flags = getelementptr inbounds nuw i8, ptr %call.i, i64 532
  %0 = load i32, ptr %flags, align 4
  %1 = and i32 %0, 130
  %or.cond = icmp ne i32 %1, 0
  %or = zext i1 %or.cond to i64
  %features.addr.0 = or i64 %features, %or
  %and7 = lshr i32 %0, 2
  %2 = and i32 %and7, 2
  %3 = zext nneg i32 %2 to i64
  %features.addr.1 = or i64 %features.addr.0, %3
  %4 = and i32 %and7, 8
  %5 = zext nneg i32 %4 to i64
  %features.addr.2 = or i64 %features.addr.1, %5
  %6 = and i32 %and7, 16
  %7 = zext nneg i32 %6 to i64
  %features.addr.3 = or i64 %features.addr.2, %7
  ret i64 %features.addr.3
}